target datalayout = "e-m:e-p270:32:32-p271:32:32-p272:64:64-i64:64-i128:128-f80:128-n8:16:32:64-S128"
target triple = "x86_64-pc-linux-gnu"

%struct.PaPulseAudio_HostApiRepresentation = type { %struct.PaUtilHostApiRepresentation, %struct.PaUtilStreamInterface, %struct.PaUtilStreamInterface, ptr, i32, [1024 x %struct.PaDeviceInfo], [1024 x ptr], %struct.pa_sample_spec, ptr, ptr, ptr, i32, ptr }
%struct.PaUtilHostApiRepresentation = type { %struct.PaUtilPrivatePaFrontHostApiInfo, %struct.PaHostApiInfo, ptr, ptr, ptr, ptr }
%struct.PaUtilPrivatePaFrontHostApiInfo = type { i64 }
%struct.PaHostApiInfo = type { i32, i32, ptr, i32, i32, i32 }
%struct.PaUtilStreamInterface = type { ptr, ptr, ptr, ptr, ptr, ptr, ptr, ptr, ptr, ptr, ptr, ptr }
%struct.PaDeviceInfo = type { i32, ptr, i32, i32, i32, double, double, double, double, double }
%struct.pa_sample_spec = type { i32, i32, i8 }
%struct.pa_channel_map = type { i8, [32 x i32] }
%struct.pa_cvolume = type { i8, [32 x i32] }
%struct.pa_source_info = type { ptr, i32, ptr, %struct.pa_sample_spec, %struct.pa_channel_map, i32, %struct.pa_cvolume, i32, i32, ptr, i64, ptr, i32, ptr, i64, i32, i32, i32, i32, i32, ptr, ptr, i8, ptr }

@.str.11 = private unnamed_addr constant [43 x i8] c"PaPulseAudio_SourceListCb: Invalid context\00", align 1
@.str.12 = private unnamed_addr constant [69 x i8] c"PaPulseAudio_SourceListCb: Can't add device. Maximum amount reached!\00", align 1

; Function Attrs: nounwind uwtable
define void @PaPulseAudio_SourceListCb(ptr noundef %0, ptr noundef %1, i32 noundef %2, ptr noundef %3) #0 {
  %5 = alloca ptr, align 8
  %6 = alloca ptr, align 8
  %7 = alloca i32, align 4
  %8 = alloca ptr, align 8
  %9 = alloca ptr, align 8
  %10 = alloca ptr, align 8
  store ptr %0, ptr %5, align 8
  store ptr %1, ptr %6, align 8
  store i32 %2, ptr %7, align 4
  store ptr %3, ptr %8, align 8
  %11 = load ptr, ptr %8, align 8
  store ptr %11, ptr %9, align 8
  store ptr null, ptr %10, align 8
  %12 = load ptr, ptr %5, align 8
  %13 = icmp ne ptr %12, null
  br i1 %13, label %15, label %14

14:                                               ; preds = %4
  call void @PaUtil_SetLastHostErrorInfo(i32 noundef 0, i64 noundef 0, ptr noundef @.str.11)
  br label %51

15:                                               ; preds = %4
  %16 = load i32, ptr %7, align 4
  %17 = icmp sgt i32 %16, 0
  br i1 %17, label %18, label %19

18:                                               ; preds = %15
  br label %51

19:                                               ; preds = %15
  %20 = load ptr, ptr %6, align 8
  %21 = getelementptr inbounds nuw %struct.pa_source_info, ptr %20, i32 0, i32 0
  %22 = load ptr, ptr %21, align 8
  store ptr %22, ptr %10, align 8
  %23 = load ptr, ptr %6, align 8
  %24 = getelementptr inbounds nuw %struct.pa_source_info, ptr %23, i32 0, i32 2
  %25 = load ptr, ptr %24, align 8
  %26 = icmp ne ptr %25, null
  br i1 %26, label %27, label %31

27:                                               ; preds = %19
  %28 = load ptr, ptr %6, align 8
  %29 = getelementptr inbounds nuw %struct.pa_source_info, ptr %28, i32 0, i32 2
  %30 = load ptr, ptr %29, align 8
  store ptr %30, ptr %10, align 8
  br label %31

31:                                               ; preds = %27, %19
  %32 = load ptr, ptr %9, align 8
  %33 = load ptr, ptr %10, align 8
  %34 = load ptr, ptr %6, align 8
  %35 = getelementptr inbounds nuw %struct.pa_source_info, ptr %34, i32 0, i32 0
  %36 = load ptr, ptr %35, align 8
  %37 = load ptr, ptr %6, align 8
  %38 = getelementptr inbounds nuw %struct.pa_source_info, ptr %37, i32 0, i32 3
  %39 = getelementptr inbounds nuw %struct.pa_sample_spec, ptr %38, i32 0, i32 2
  %40 = load i8, ptr %39, align 8
  %41 = zext i8 %40 to i32
  %42 = load ptr, ptr %6, align 8
  %43 = getelementptr inbounds nuw %struct.pa_source_info, ptr %42, i32 0, i32 3
  %44 = getelementptr inbounds nuw %struct.pa_sample_spec, ptr %43, i32 0, i32 1
  %45 = load i32, ptr %44, align 4
  %46 = zext i32 %45 to i64
  %47 = call i32 @_PaPulseAudio_AddAudioDevice(ptr noundef %32, ptr noundef %33, ptr noundef %36, i32 noundef %41, i32 noundef 0, double noundef 1.000000e-02, double noundef 8.000000e-02, double noundef 0.000000e+00, double noundef 0.000000e+00, i64 noundef %46)
  %48 = icmp ne i32 %47, 0
  br i1 %48, label %49, label %50

49:                                               ; preds = %31
  call void @PaUtil_SetLastHostErrorInfo(i32 noundef 0, i64 noundef 0, ptr noundef @.str.12)
  br label %50

50:                                               ; preds = %49, %31
  br label %51

51:                                               ; preds = %50, %18, %14
  %52 = load ptr, ptr %9, align 8
  %53 = getelementptr inbounds nuw %struct.PaPulseAudio_HostApiRepresentation, ptr %52, i32 0, i32 8
  %54 = load ptr, ptr %53, align 8
  call void @pa_threaded_mainloop_signal(ptr noundef %54, i32 noundef 0)
  ret void
}