; Function Attrs: nounwind uwtable
define void @PaPulseAudio_SourceListCb(ptr noundef readnone %0, ptr nocapture noundef readonly %1, i32 noundef %2, ptr nocapture noundef %3) #0 {
  %.not = icmp eq ptr %0, null
  br i1 %.not, label %.sink.split, label %5

5:                                                ; preds = %4
  %6 = icmp sgt i32 %2, 0
  br i1 %6, label %18, label %7

7:                                                ; preds = %5
  %8 = load ptr, ptr %1, align 8
  %9 = getelementptr inbounds nuw i8, ptr %1, i64 16
  %10 = load ptr, ptr %9, align 8
  %.not12 = icmp eq ptr %10, null
  %spec.select = select i1 %.not12, ptr %8, ptr %10
  %11 = getelementptr inbounds i8, ptr %1, i64 32
  %12 = load i8, ptr %11, align 8
  %13 = zext i8 %12 to i32
  %14 = getelementptr inbounds i8, ptr %1, i64 28
  %15 = load i32, ptr %14, align 4
  %16 = zext i32 %15 to i64
  %17 = tail call i32 @_PaPulseAudio_AddAudioDevice(ptr noundef %3, ptr noundef %spec.select, ptr noundef %8, i32 noundef %13, i32 noundef 0, double noundef 1.000000e-02, double noundef 8.000000e-02, double noundef 0.000000e+00, double noundef 0.000000e+00, i64 noundef %16)
  %.not13 = icmp eq i32 %17, 0
  br i1 %.not13, label %18, label %.sink.split

.sink.split:                                      ; preds = %7, %4
  %.str.12.sink = phi ptr [ @.str.11, %4 ], [ @.str.12, %7 ]
  tail call void @PaUtil_SetLastHostErrorInfo(i32 noundef 0, i64 noundef 0, ptr noundef nonnull %.str.12.sink) #13
  br label %18

18:                                               ; preds = %.sink.split, %7, %5
  %19 = getelementptr inbounds nuw i8, ptr %3, i64 82216
  %20 = load ptr, ptr %19, align 8
  tail call void @pa_threaded_mainloop_signal(ptr noundef %20, i32 noundef 0) #13
  ret void
}